target datalayout = "e-m:e-p270:32:32-p271:32:32-p272:64:64-i64:64-i128:128-f80:128-n8:16:32:64-S128"
target triple = "x86_64-pc-linux-gnu"

%struct.compare_context = type { ptr, i32 }

; Function Attrs: inlinehint nounwind uwtable
define internal zeroext i1 @DatumGetBool(i64 noundef %0) #3 {
  %2 = alloca i64, align 8
  store i64 %0, ptr %2, align 8
  %3 = load i64, ptr %2, align 8
  %4 = icmp ne i64 %3, 0
  ret i1 %4
}

; Function Attrs: nounwind uwtable
define internal i32 @compare_values(ptr noundef %0, ptr noundef %1, ptr noundef %2) #0 {
  %4 = alloca i32, align 4
  %5 = alloca ptr, align 8
  %6 = alloca ptr, align 8
  %7 = alloca ptr, align 8
  %8 = alloca ptr, align 8
  %9 = alloca ptr, align 8
  %10 = alloca i64, align 8
  %11 = alloca ptr, align 8
  %12 = alloca i32, align 4
  store ptr %0, ptr %5, align 8
  store ptr %1, ptr %6, align 8
  store ptr %2, ptr %7, align 8
  call void @llvm.lifetime.start.p0(i64 8, ptr %8) #8
  %13 = load ptr, ptr %5, align 8
  store ptr %13, ptr %8, align 8
  call void @llvm.lifetime.start.p0(i64 8, ptr %9) #8
  %14 = load ptr, ptr %6, align 8
  store ptr %14, ptr %9, align 8
  call void @llvm.lifetime.start.p0(i64 8, ptr %10) #8
  call void @llvm.lifetime.start.p0(i64 8, ptr %11) #8
  %15 = load ptr, ptr %7, align 8
  store ptr %15, ptr %11, align 8
  %16 = load ptr, ptr %11, align 8
  %17 = getelementptr inbounds nuw %struct.compare_context, ptr %16, i32 0, i32 0
  %18 = load ptr, ptr %17, align 8
  %19 = load ptr, ptr %11, align 8
  %20 = getelementptr inbounds nuw %struct.compare_context, ptr %19, i32 0, i32 1
  %21 = load i32, ptr %20, align 8
  %22 = load ptr, ptr %8, align 8
  %23 = load i64, ptr %22, align 8
  %24 = load ptr, ptr %9, align 8
  %25 = load i64, ptr %24, align 8
  %26 = call i64 @FunctionCall2Coll(ptr noundef %18, i32 noundef %21, i64 noundef %23, i64 noundef %25)
  store i64 %26, ptr %10, align 8
  %27 = load i64, ptr %10, align 8
  %28 = call zeroext i1 @DatumGetBool(i64 noundef %27)
  br i1 %28, label %29, label %30

29:                                               ; preds = %3
  store i32 -1, ptr %4, align 4
  store i32 1, ptr %12, align 4
  br label %46

30:                                               ; preds = %3
  %31 = load ptr, ptr %11, align 8
  %32 = getelementptr inbounds nuw %struct.compare_context, ptr %31, i32 0, i32 0
  %33 = load ptr, ptr %32, align 8
  %34 = load ptr, ptr %11, align 8
  %35 = getelementptr inbounds nuw %struct.compare_context, ptr %34, i32 0, i32 1
  %36 = load i32, ptr %35, align 8
  %37 = load ptr, ptr %9, align 8
  %38 = load i64, ptr %37, align 8
  %39 = load ptr, ptr %8, align 8
  %40 = load i64, ptr %39, align 8
  %41 = call i64 @FunctionCall2Coll(ptr noundef %33, i32 noundef %36, i64 noundef %38, i64 noundef %40)
  store i64 %41, ptr %10, align 8
  %42 = load i64, ptr %10, align 8
  %43 = call zeroext i1 @DatumGetBool(i64 noundef %42)
  br i1 %43, label %44, label %45

44:                                               ; preds = %30
  store i32 1, ptr %4, align 4
  store i32 1, ptr %12, align 4
  br label %46

45:                                               ; preds = %30
  store i32 0, ptr %4, align 4
  store i32 1, ptr %12, align 4
  br label %46

46:                                               ; preds = %45, %44, %29
  call void @llvm.lifetime.end.p0(i64 8, ptr %11) #8
  call void @llvm.lifetime.end.p0(i64 8, ptr %10) #8
  call void @llvm.lifetime.end.p0(i64 8, ptr %9) #8
  call void @llvm.lifetime.end.p0(i64 8, ptr %8) #8
  %47 = load i32, ptr %4, align 4
  ret i32 %47
}