; Function Attrs: nounwind uwtable
define internal range(i32 -1, 2) i32 @compare_values(ptr noundef readonly captures(none) %0, ptr noundef readonly captures(none) %1, ptr noundef readonly captures(none) %2) #0 {
  %4 = load ptr, ptr %2, align 8
  %5 = getelementptr inbounds nuw i8, ptr %2, i64 8
  %6 = load i32, ptr %5, align 8
  %7 = load i64, ptr %0, align 8
  %8 = load i64, ptr %1, align 8
  %9 = tail call i64 @FunctionCall2Coll(ptr noundef %4, i32 noundef %6, i64 noundef %7, i64 noundef %8) #12
  %.not = icmp eq i64 %9, 0
  br i1 %.not, label %10, label %16

10:                                               ; preds = %3
  %11 = load ptr, ptr %2, align 8
  %12 = load i32, ptr %5, align 8
  %13 = load i64, ptr %1, align 8
  %14 = load i64, ptr %0, align 8
  %15 = tail call i64 @FunctionCall2Coll(ptr noundef %11, i32 noundef %12, i64 noundef %13, i64 noundef %14) #12
  %.not13 = icmp ne i64 %15, 0
  %. = zext i1 %.not13 to i32
  br label %16

16:                                               ; preds = %10, %3
  %.0 = phi i32 [ -1, %3 ], [ %., %10 ]
  ret i32 %.0
}